; Function Attrs: inlinehint mustprogress uwtable
define internal fastcc void @_ZN2cvlsIddEENS_20MatCommaInitializer_IT_EERKNS_4Mat_IS2_EET0_(ptr dead_on_unwind noalias nonnull writable writeonly align 8 captures(none) initializes((0, 40)) %0, ptr noundef nonnull align 8 dereferenceable(96) %1, double noundef %2) unnamed_addr #6 {
  %4 = alloca %"class.cv::MatCommaInitializer_", align 8
  call void @llvm.lifetime.start.p0(i64 40, ptr nonnull %4) #35
  call void @_ZN2cv16MatConstIteratorC2EPKNS_3MatE(ptr noundef nonnull align 8 dereferenceable(40) %4, ptr noundef nonnull %1)
  %5 = getelementptr inbounds nuw i8, ptr %4, i64 16
  %6 = load ptr, ptr %5, align 8, !tbaa !157
  store double %2, ptr %6, align 8, !tbaa !84
  %7 = load ptr, ptr %4, align 8, !tbaa !154
  %.not.i.i.i = icmp eq ptr %7, null
  br i1 %.not.i.i.i, label %_ZN2cv20MatCommaInitializer_IdEcmIdEERS1_T_.exit, label %8

8:                                                ; preds = %3
  %9 = getelementptr inbounds nuw i8, ptr %4, i64 8
  %10 = load i64, ptr %9, align 8, !tbaa !156
  %11 = getelementptr inbounds nuw i8, ptr %6, i64 %10
  %12 = getelementptr inbounds nuw i8, ptr %4, i64 32
  %13 = load ptr, ptr %12, align 8, !tbaa !159
  %.not1.i.i.i = icmp ult ptr %11, %13
  br i1 %.not1.i.i.i, label %_ZN2cv20MatCommaInitializer_IdEcmIdEERS1_T_.exit, label %14

14:                                               ; preds = %8
  call void @_ZN2cv16MatConstIterator4seekElb(ptr noundef nonnull align 8 dereferenceable(40) %4, i64 noundef 1, i1 noundef zeroext true)
  %.pre = load ptr, ptr %4, align 8, !tbaa !154
  %.pre2 = load ptr, ptr %5, align 8, !tbaa !157
  br label %_ZN2cv20MatCommaInitializer_IdEcmIdEERS1_T_.exit

_ZN2cv20MatCommaInitializer_IdEcmIdEERS1_T_.exit: ; preds = %3, %8, %14
  %15 = phi ptr [ %6, %3 ], [ %11, %8 ], [ %.pre2, %14 ]
  %16 = phi ptr [ null, %3 ], [ %7, %8 ], [ %.pre, %14 ]
  store ptr %16, ptr %0, align 8, !tbaa !154
  %17 = getelementptr inbounds nuw i8, ptr %0, i64 8
  %18 = getelementptr inbounds nuw i8, ptr %4, i64 8
  %19 = load i64, ptr %18, align 8, !tbaa !156
  store i64 %19, ptr %17, align 8, !tbaa !156
  %20 = getelementptr inbounds nuw i8, ptr %0, i64 16
  store ptr %15, ptr %20, align 8, !tbaa !157
  %21 = getelementptr inbounds nuw i8, ptr %0, i64 24
  %22 = getelementptr inbounds nuw i8, ptr %4, i64 24
  %23 = load ptr, ptr %22, align 8, !tbaa !158
  store ptr %23, ptr %21, align 8, !tbaa !158
  %24 = getelementptr inbounds nuw i8, ptr %0, i64 32
  %25 = getelementptr inbounds nuw i8, ptr %4, i64 32
  %26 = load ptr, ptr %25, align 8, !tbaa !159
  store ptr %26, ptr %24, align 8, !tbaa !159
  call void @llvm.lifetime.end.p0(i64 40, ptr nonnull %4) #35
  ret void
}